(dp1
S'i_koef'
p2
S'DOUBLE'
p3
sS'unique_name'
p4
S'CHAR(63)'
p5
sS'angle'
p6
S'DOUBLE'
p7
sS'description'
p8
S'CHAR(63)'
p9
sS'step_x'
p10
S'DOUBLE'
p11
sS'step_z'
p12
S'DOUBLE'
p13
sS'params'
p14
S'TEXT'
p15
sS'shear_x'
p16
S'DOUBLE'
p17
sS'shear_z'
p18
S'DOUBLE'
p19
sS'quantity'
p20
S'INTEGER'
p21
sS'type'
p22
S'CHAR(63)'
p23
sS'id'
p24
S'INTEGER PRIMARY KEY AUTOINCREMENT'
p25
sS'name'
p26
S'CHAR(63)'
p27
s.