(dp1
S'unique_name'
p2
S'CHAR(63)'
p3
sS'description'
p4
S'CHAR(63)'
p5
sS'zero_file'
p6
S'CHAR(255)'
p7
sS'background_file'
p8
S'CHAR(255)'
p9
sS'name'
p10
S'CHAR(63)'
p11
sS'is_writable'
p12
S'CHAR(1)'
p13
sS'address'
p14
S'INTEGER'
p15
sS'id'
p16
S'INTEGER PRIMARY KEY AUTOINCREMENT'
p17
sS'quantity'
p18
S'INTEGER'
p19
s.