(dp1
S'unique_name'
p2
S'CHAR(63)'
p3
sS'name'
p4
S'CHAR(63)'
p5
sS'data_backdir_x'
p6
S'CHAR(1)'
p7
sS'data_backdir_z'
p8
S'CHAR(1)'
p9
sS'scale_x'
p10
S'DOUBLE'
p11
sS'scale_z'
p12
S'DOUBLE'
p13
sS'id'
p14
S'INTEGER PRIMARY KEY AUTOINCREMENT'
p15
sS'description'
p16
S'CHAR(255)'
p17
s.