(dp1
S'unique_name'
p2
S'CHAR(63)'
p3
sS'active_line'
p4
S'INTEGER'
p5
sS'name'
p6
S'CHAR(63)'
p7
sS'type'
p8
S'CHAR(63)'
p9
sS'can_address'
p10
S'CHAR(63)'
p11
sS'id'
p12
S'INTEGER PRIMARY KEY AUTOINCREMENT'
p13
sS'description'
p14
S'CHAR(63)'
p15
s.