(dp1
S'user_id'
p2
S'INTEGER'
p3
sS'target'
p4
S'CHAR(512)'
p5
sS'title'
p6
S'CHAR(512)'
p7
sS'user_info'
p8
S'CHAR(512)'
p9
sS'caused_changes'
p10
S'TEXT'
p11
sS'action'
p12
S'CHAR(512)'
p13
sS'date'
p14
S'TIMESTAMP'
p15
sS'id'
p16
S'INTEGER PRIMARY KEY AUTOINCREMENT'
p17
s.