(dp1
S'code'
p2
S'TEXT'
p3
sS'description'
p4
S'CHAR(512)'
p5
sS'title'
p6
S'CHAR(512)'
p7
sS'author'
p8
S'INTEGER'
p9
sS'connection_id'
p10
S'INTEGER'
p11
sS'test_url'
p12
S'CHAR(512)'
p13
sS'modified'
p14
S'TIMESTAMP'
p15
sS'template'
p16
S'TEXT'
p17
sS'served_name'
p18
S'CHAR(512)'
p19
sS'id'
p20
S'INTEGER PRIMARY KEY AUTOINCREMENT'
p21
s.