(dp1
S'unique_name'
p2
S'CHAR(63)'
p3
sS'description'
p4
S'CHAR(63)'
p5
sS'readable_name'
p6
S'CHAR(63)'
p7
sS'note'
p8
S'TEXT'
p9
sS'params'
p10
S'TEXT'
p11
sS'id'
p12
S'INTEGER PRIMARY KEY AUTOINCREMENT'
p13
sS'name'
p14
S'CHAR(63)'
p15
s.