(dp1
S'default_value'
p2
S'DOUBLE'
p3
sS'unique_name'
p4
S'CHAR(63)'
p5
sS'name'
p6
S'CHAR(63)'
p7
sS'readable_name'
p8
S'CHAR(63)'
p9
sS'note'
p10
S'TEXT'
p11
sS'id'
p12
S'INTEGER PRIMARY KEY AUTOINCREMENT'
p13
sS'description'
p14
S'CHAR(63)'
p15
s.