(dp1
S'unique_name'
p2
S'CHAR(63)'
p3
sS'name'
p4
S'CHAR(63)'
p5
sS'description'
p6
S'CHAR(63)'
p7
sS'readable_name'
p8
S'CHAR(63)'
p9
sS'note'
p10
S'TEXT'
p11
sS'id'
p12
S'INTEGER PRIMARY KEY AUTOINCREMENT'
p13
sS'quantity'
p14
S'INTEGER'
p15
s.