(dp1
S'unique_name'
p2
S'CHAR(63)'
p3
sS'description'
p4
S'CHAR(63)'
p5
sS'readable_name'
p6
S'CHAR(63)'
p7
sS'id'
p8
S'INTEGER PRIMARY KEY AUTOINCREMENT'
p9
sS'active_line'
p10
S'INTEGER'
p11
sS'name'
p12
S'CHAR(63)'
p13
sS'type'
p14
S'CHAR(63)'
p15
sS'note'
p16
S'TEXT'
p17
sS'params'
p18
S'TEXT'
p19
sS'template'
p20
S'CHAR(63)'
p21
sS'can_address'
p22
S'CHAR(63)'
p23
s.