(dp1
S'default_value'
p2
S'DOUBLE'
p3
sS'note'
p4
S'TEXT'
p5
sS'unique_name'
p6
S'CHAR(63)'
p7
sS'min_value'
p8
S'DOUBLE'
p9
sS'description'
p10
S'CHAR(63)'
p11
sS'max_value'
p12
S'DOUBLE'
p13
sS'zero_file'
p14
S'CHAR(255)'
p15
sS'readable_name'
p16
S'CHAR(63)'
p17
sS'name'
p18
S'CHAR(63)'
p19
sS'is_writable'
p20
S'CHAR(1)'
p21
sS'params'
p22
S'TEXT'
p23
sS'address'
p24
S'INTEGER'
p25
sS'id'
p26
S'INTEGER PRIMARY KEY AUTOINCREMENT'
p27
sS'quantity'
p28
S'INTEGER'
p29
s.